; Function Attrs: nounwind uwtable
define dso_local void @recordDependencyOnNewAcl(i32 noundef %0, i32 noundef %1, i32 noundef %2, i32 noundef %3, ptr noundef %4) local_unnamed_addr #0 {
  %6 = alloca ptr, align 8
  call void @llvm.lifetime.start.p0(i64 8, ptr nonnull %6) #9
  %7 = icmp eq ptr %4, null
  br i1 %7, label %11, label %8

8:                                                ; preds = %5
  %9 = call i32 @aclmembers(ptr noundef nonnull %4, ptr noundef nonnull %6) #9
  %10 = load ptr, ptr %6, align 8
  call void @updateAclDependencies(i32 noundef %0, i32 noundef %1, i32 noundef %2, i32 noundef %3, i32 noundef 0, ptr noundef null, i32 noundef %9, ptr noundef %10) #9
  br label %11

11:                                               ; preds = %5, %8
  call void @llvm.lifetime.end.p0(i64 8, ptr nonnull %6) #9
  ret void
}